target datalayout = "e-m:e-p270:32:32-p271:32:32-p272:64:64-i64:64-i128:128-f80:128-n8:16:32:64-S128"
target triple = "x86_64-pc-linux-gnu"

%struct.Vec_Ptr_t_ = type { i32, i32, ptr }
%struct.Vec_Int_t_ = type { i32, i32, ptr }
%struct.Sim_Man_t_ = type { ptr, i32, i32, i32, i32, i32, ptr, ptr, i32, i32, ptr, ptr, ptr, i32, ptr, ptr, ptr, i32, i32, i32, i64, i64, i64, i64, i64 }
%struct.Abc_Obj_t_ = type { ptr, ptr, i32, i32, %struct.Vec_Int_t_, %struct.Vec_Int_t_, %union.anon, %union.anon.0 }
%union.anon = type { ptr }
%union.anon.0 = type { ptr }

; Function Attrs: nounwind uwtable
define i32 @Sim_UtilInfoCompare(ptr noundef %0, ptr noundef %1) #0 {
  %3 = alloca i32, align 4
  %4 = alloca ptr, align 8
  %5 = alloca ptr, align 8
  %6 = alloca ptr, align 8
  %7 = alloca ptr, align 8
  %8 = alloca i32, align 4
  %9 = alloca i32, align 4
  store ptr %0, ptr %4, align 8, !tbaa !30
  store ptr %1, ptr %5, align 8, !tbaa !32
  call void @llvm.lifetime.start.p0(i64 8, ptr %6) #8
  call void @llvm.lifetime.start.p0(i64 8, ptr %7) #8
  call void @llvm.lifetime.start.p0(i64 4, ptr %8) #8
  %10 = load ptr, ptr %4, align 8, !tbaa !30
  %11 = getelementptr inbounds nuw %struct.Sim_Man_t_, ptr %10, i32 0, i32 6
  %12 = load ptr, ptr %11, align 8, !tbaa !34
  %13 = getelementptr inbounds nuw %struct.Vec_Ptr_t_, ptr %12, i32 0, i32 2
  %14 = load ptr, ptr %13, align 8, !tbaa !10
  %15 = load ptr, ptr %5, align 8, !tbaa !32
  %16 = getelementptr inbounds nuw %struct.Abc_Obj_t_, ptr %15, i32 0, i32 2
  %17 = load i32, ptr %16, align 8, !tbaa !40
  %18 = sext i32 %17 to i64
  %19 = getelementptr inbounds ptr, ptr %14, i64 %18
  %20 = load ptr, ptr %19, align 8, !tbaa !12
  store ptr %20, ptr %6, align 8, !tbaa !17
  %21 = load ptr, ptr %4, align 8, !tbaa !30
  %22 = getelementptr inbounds nuw %struct.Sim_Man_t_, ptr %21, i32 0, i32 7
  %23 = load ptr, ptr %22, align 8, !tbaa !42
  %24 = getelementptr inbounds nuw %struct.Vec_Ptr_t_, ptr %23, i32 0, i32 2
  %25 = load ptr, ptr %24, align 8, !tbaa !10
  %26 = load ptr, ptr %5, align 8, !tbaa !32
  %27 = getelementptr inbounds nuw %struct.Abc_Obj_t_, ptr %26, i32 0, i32 2
  %28 = load i32, ptr %27, align 8, !tbaa !40
  %29 = sext i32 %28 to i64
  %30 = getelementptr inbounds ptr, ptr %25, i64 %29
  %31 = load ptr, ptr %30, align 8, !tbaa !12
  store ptr %31, ptr %7, align 8, !tbaa !17
  store i32 0, ptr %8, align 4, !tbaa !3
  br label %32

32:                                               ; preds = %52, %2
  %33 = load i32, ptr %8, align 4, !tbaa !3
  %34 = load ptr, ptr %4, align 8, !tbaa !30
  %35 = getelementptr inbounds nuw %struct.Sim_Man_t_, ptr %34, i32 0, i32 5
  %36 = load i32, ptr %35, align 8, !tbaa !43
  %37 = icmp slt i32 %33, %36
  br i1 %37, label %38, label %55

38:                                               ; preds = %32
  %39 = load ptr, ptr %7, align 8, !tbaa !17
  %40 = load i32, ptr %8, align 4, !tbaa !3
  %41 = sext i32 %40 to i64
  %42 = getelementptr inbounds i32, ptr %39, i64 %41
  %43 = load i32, ptr %42, align 4, !tbaa !3
  %44 = load ptr, ptr %6, align 8, !tbaa !17
  %45 = load i32, ptr %8, align 4, !tbaa !3
  %46 = sext i32 %45 to i64
  %47 = getelementptr inbounds i32, ptr %44, i64 %46
  %48 = load i32, ptr %47, align 4, !tbaa !3
  %49 = icmp ne i32 %43, %48
  br i1 %49, label %50, label %51

50:                                               ; preds = %38
  store i32 0, ptr %3, align 4
  store i32 1, ptr %9, align 4
  br label %56

51:                                               ; preds = %38
  br label %52

52:                                               ; preds = %51
  %53 = load i32, ptr %8, align 4, !tbaa !3
  %54 = add nsw i32 %53, 1
  store i32 %54, ptr %8, align 4, !tbaa !3
  br label %32, !llvm.loop !45

55:                                               ; preds = %32
  store i32 1, ptr %3, align 4
  store i32 1, ptr %9, align 4
  br label %56

56:                                               ; preds = %55, %50
  call void @llvm.lifetime.end.p0(i64 4, ptr %8) #8
  call void @llvm.lifetime.end.p0(i64 8, ptr %7) #8
  call void @llvm.lifetime.end.p0(i64 8, ptr %6) #8
  %57 = load i32, ptr %3, align 4
  ret i32 %57
}